target datalayout = "e-m:e-p270:32:32-p271:32:32-p272:64:64-i64:64-i128:128-f80:128-n8:16:32:64-S128"
target triple = "x86_64-pc-linux-gnu"

@.str.8 = private unnamed_addr constant [9 x i8] c"skipped\0A\00", align 1
@.str.9 = private unnamed_addr constant [8 x i8] c"failed\0A\00", align 1
@.str.10 = private unnamed_addr constant [8 x i8] c"passed\0A\00", align 1
@.str.11 = private unnamed_addr constant [16 x i8] c"  %s CMAC #%d: \00", align 1

; Function Attrs: nounwind uwtable
define internal i32 @cmac_test_wth_cipher(i32 noundef %0, ptr noundef %1, ptr noundef %2, i32 noundef %3, ptr noundef %4, ptr noundef %5, ptr noundef %6, i32 noundef %7, i32 noundef %8, i32 noundef %9) #0 {
  %11 = alloca i32, align 4
  %12 = alloca ptr, align 8
  %13 = alloca ptr, align 8
  %14 = alloca i32, align 4
  %15 = alloca ptr, align 8
  %16 = alloca ptr, align 8
  %17 = alloca ptr, align 8
  %18 = alloca i32, align 4
  %19 = alloca i32, align 4
  %20 = alloca i32, align 4
  %21 = alloca ptr, align 8
  %22 = alloca i32, align 4
  %23 = alloca i32, align 4
  %24 = alloca [16 x i8], align 16
  store i32 %0, ptr %11, align 4, !tbaa !17
  store ptr %1, ptr %12, align 8, !tbaa !8
  store ptr %2, ptr %13, align 8, !tbaa !8
  store i32 %3, ptr %14, align 4, !tbaa !17
  store ptr %4, ptr %15, align 8, !tbaa !8
  store ptr %5, ptr %16, align 8, !tbaa !32
  store ptr %6, ptr %17, align 8, !tbaa !8
  store i32 %7, ptr %18, align 4, !tbaa !17
  store i32 %8, ptr %19, align 4, !tbaa !17
  store i32 %9, ptr %20, align 4, !tbaa !17
  call void @llvm.lifetime.start.p0(i64 8, ptr %21) #11
  call void @llvm.lifetime.start.p0(i64 4, ptr %22) #11
  call void @llvm.lifetime.start.p0(i64 4, ptr %23) #11
  store i32 0, ptr %23, align 4, !tbaa !17
  call void @llvm.lifetime.start.p0(i64 16, ptr %24) #11
  %25 = load i32, ptr %18, align 4, !tbaa !17
  %26 = call ptr @mbedtls_cipher_info_from_type(i32 noundef %25)
  store ptr %26, ptr %21, align 8, !tbaa !20
  %27 = load ptr, ptr %21, align 8, !tbaa !20
  %28 = icmp eq ptr %27, null
  br i1 %28, label %29, label %30

29:                                               ; preds = %10
  store i32 -24704, ptr %23, align 4, !tbaa !17
  br label %110

30:                                               ; preds = %10
  store i32 0, ptr %22, align 4, !tbaa !17
  br label %31

31:                                               ; preds = %106, %30
  %32 = load i32, ptr %22, align 4, !tbaa !17
  %33 = load i32, ptr %20, align 4, !tbaa !17
  %34 = icmp slt i32 %32, %33
  br i1 %34, label %35, label %109

35:                                               ; preds = %31
  %36 = load i32, ptr %11, align 4, !tbaa !17
  %37 = icmp ne i32 %36, 0
  br i1 %37, label %38, label %43

38:                                               ; preds = %35
  %39 = load ptr, ptr %12, align 8, !tbaa !8
  %40 = load i32, ptr %22, align 4, !tbaa !17
  %41 = add nsw i32 %40, 1
  %42 = call i32 (ptr, ...) @printf(ptr noundef @.str.11, ptr noundef %39, i32 noundef %41)
  br label %43

43:                                               ; preds = %38, %35
  %44 = load ptr, ptr %21, align 8, !tbaa !20
  %45 = load ptr, ptr %13, align 8, !tbaa !8
  %46 = load i32, ptr %14, align 4, !tbaa !17
  %47 = sext i32 %46 to i64
  %48 = load ptr, ptr %15, align 8, !tbaa !8
  %49 = load ptr, ptr %16, align 8, !tbaa !32
  %50 = load i32, ptr %22, align 4, !tbaa !17
  %51 = sext i32 %50 to i64
  %52 = getelementptr inbounds i32, ptr %49, i64 %51
  %53 = load i32, ptr %52, align 4, !tbaa !17
  %54 = zext i32 %53 to i64
  %55 = getelementptr inbounds [16 x i8], ptr %24, i64 0, i64 0
  %56 = call i32 @mbedtls_cipher_cmac(ptr noundef %44, ptr noundef %45, i64 noundef %47, ptr noundef %48, i64 noundef %54, ptr noundef %55)
  store i32 %56, ptr %23, align 4, !tbaa !17
  %57 = icmp ne i32 %56, 0
  br i1 %57, label %58, label %82

58:                                               ; preds = %43
  %59 = load i32, ptr %23, align 4, !tbaa !17
  %60 = icmp eq i32 %59, -114
  br i1 %60, label %64, label %61

61:                                               ; preds = %58
  %62 = load i32, ptr %23, align 4, !tbaa !17
  %63 = icmp eq i32 %62, -24704
  br i1 %63, label %64, label %76

64:                                               ; preds = %61, %58
  %65 = load i32, ptr %18, align 4, !tbaa !17
  %66 = icmp eq i32 %65, 3
  br i1 %66, label %70, label %67

67:                                               ; preds = %64
  %68 = load i32, ptr %18, align 4, !tbaa !17
  %69 = icmp eq i32 %68, 36
  br i1 %69, label %70, label %76

70:                                               ; preds = %67, %64
  %71 = load i32, ptr %11, align 4, !tbaa !17
  %72 = icmp ne i32 %71, 0
  br i1 %72, label %73, label %75

73:                                               ; preds = %70
  %74 = call i32 (ptr, ...) @printf(ptr noundef @.str.8)
  br label %75

75:                                               ; preds = %73, %70
  br label %106

76:                                               ; preds = %67, %61
  %77 = load i32, ptr %11, align 4, !tbaa !17
  %78 = icmp ne i32 %77, 0
  br i1 %78, label %79, label %81

79:                                               ; preds = %76
  %80 = call i32 (ptr, ...) @printf(ptr noundef @.str.9)
  br label %81

81:                                               ; preds = %79, %76
  br label %110

82:                                               ; preds = %43
  %83 = getelementptr inbounds [16 x i8], ptr %24, i64 0, i64 0
  %84 = load ptr, ptr %17, align 8, !tbaa !8
  %85 = load i32, ptr %22, align 4, !tbaa !17
  %86 = load i32, ptr %19, align 4, !tbaa !17
  %87 = mul nsw i32 %85, %86
  %88 = sext i32 %87 to i64
  %89 = getelementptr inbounds i8, ptr %84, i64 %88
  %90 = load i32, ptr %19, align 4, !tbaa !17
  %91 = sext i32 %90 to i64
  %92 = call i32 @memcmp(ptr noundef %83, ptr noundef %89, i64 noundef %91) #13
  store i32 %92, ptr %23, align 4, !tbaa !17
  %93 = icmp ne i32 %92, 0
  br i1 %93, label %94, label %100

94:                                               ; preds = %82
  %95 = load i32, ptr %11, align 4, !tbaa !17
  %96 = icmp ne i32 %95, 0
  br i1 %96, label %97, label %99

97:                                               ; preds = %94
  %98 = call i32 (ptr, ...) @printf(ptr noundef @.str.9)
  br label %99

99:                                               ; preds = %97, %94
  br label %110

100:                                              ; preds = %82
  %101 = load i32, ptr %11, align 4, !tbaa !17
  %102 = icmp ne i32 %101, 0
  br i1 %102, label %103, label %105

103:                                              ; preds = %100
  %104 = call i32 (ptr, ...) @printf(ptr noundef @.str.10)
  br label %105

105:                                              ; preds = %103, %100
  br label %106

106:                                              ; preds = %105, %75
  %107 = load i32, ptr %22, align 4, !tbaa !17
  %108 = add nsw i32 %107, 1
  store i32 %108, ptr %22, align 4, !tbaa !17
  br label %31, !llvm.loop !34

109:                                              ; preds = %31
  store i32 0, ptr %23, align 4, !tbaa !17
  br label %110

110:                                              ; preds = %109, %99, %81, %29
  %111 = load i32, ptr %23, align 4, !tbaa !17
  call void @llvm.lifetime.end.p0(i64 16, ptr %24) #11
  call void @llvm.lifetime.end.p0(i64 4, ptr %23) #11
  call void @llvm.lifetime.end.p0(i64 4, ptr %22) #11
  call void @llvm.lifetime.end.p0(i64 8, ptr %21) #11
  ret i32 %111
}