; Function Attrs: nounwind uwtable
define internal fastcc i32 @cmac_test_wth_cipher(i32 noundef %0, ptr noundef %1, ptr noundef %2, i32 noundef range(i32 128, 257) %3, ptr noundef readonly captures(none) %4, ptr noundef readonly captures(none) %5, i32 noundef range(i32 2, 37) %6, i32 noundef range(i32 8, 17) %7) unnamed_addr #0 {
  %9 = alloca [16 x i8], align 16
  call void @llvm.lifetime.start.p0(i64 16, ptr nonnull %9) #13
  %10 = tail call ptr @mbedtls_cipher_info_from_type(i32 noundef %6) #13
  %11 = icmp eq ptr %10, null
  br i1 %11, label %.loopexit, label %.preheader

.preheader:                                       ; preds = %8
  %.not = icmp eq i32 %0, 0
  %12 = zext nneg i32 %3 to i64
  %13 = zext nneg i32 %7 to i64
  br i1 %.not, label %.preheader.split.us, label %.preheader.split

.preheader.split.us:                              ; preds = %.preheader
  switch i32 %6, label %.preheader.split.us.split [
    i32 36, label %.preheader.split.us.split.us.preheader
    i32 3, label %.preheader.split.us.split.us.preheader
  ]

.preheader.split.us.split.us.preheader:           ; preds = %.preheader.split.us, %.preheader.split.us
  br label %.preheader.split.us.split.us

.preheader.split.us.split.us:                     ; preds = %.preheader.split.us.split.us.preheader, %22
  %indvars.iv66 = phi i64 [ %indvars.iv.next67, %22 ], [ 0, %.preheader.split.us.split.us.preheader ]
  %14 = getelementptr inbounds nuw i32, ptr %4, i64 %indvars.iv66
  %15 = load i32, ptr %14, align 4, !tbaa !26
  %16 = zext i32 %15 to i64
  %17 = call i32 @mbedtls_cipher_cmac(ptr noundef nonnull %10, ptr noundef %2, i64 noundef %12, ptr noundef nonnull @test_message, i64 noundef %16, ptr noundef nonnull %9)
  switch i32 %17, label %.split.us [
    i32 0, label %18
    i32 -114, label %22
    i32 -24704, label %22
  ]

18:                                               ; preds = %.preheader.split.us.split.us
  %19 = mul nuw nsw i64 %indvars.iv66, %13
  %20 = getelementptr inbounds nuw i8, ptr %5, i64 %19
  %21 = call i32 @memcmp(ptr noundef nonnull dereferenceable(1) %9, ptr noundef nonnull dereferenceable(1) %20, i64 noundef %13) #15
  %.not34.us.us = icmp eq i32 %21, 0
  br i1 %.not34.us.us, label %22, label %.split7.us

22:                                               ; preds = %18, %.preheader.split.us.split.us, %.preheader.split.us.split.us
  %indvars.iv.next67 = add nuw nsw i64 %indvars.iv66, 1
  %exitcond69.not = icmp eq i64 %indvars.iv.next67, 4
  br i1 %exitcond69.not, label %.loopexit, label %.preheader.split.us.split.us, !llvm.loop !27

.preheader.split.us.split:                        ; preds = %.preheader.split.us, %31
  %indvars.iv70 = phi i64 [ %indvars.iv.next71, %31 ], [ 0, %.preheader.split.us ]
  %23 = getelementptr inbounds nuw i32, ptr %4, i64 %indvars.iv70
  %24 = load i32, ptr %23, align 4, !tbaa !26
  %25 = zext i32 %24 to i64
  %26 = call i32 @mbedtls_cipher_cmac(ptr noundef nonnull %10, ptr noundef %2, i64 noundef %12, ptr noundef nonnull @test_message, i64 noundef %25, ptr noundef nonnull %9)
  %cond = icmp eq i32 %26, 0
  br i1 %cond, label %27, label %.split.us

27:                                               ; preds = %.preheader.split.us.split
  %28 = mul nuw nsw i64 %indvars.iv70, %13
  %29 = getelementptr inbounds nuw i8, ptr %5, i64 %28
  %30 = call i32 @memcmp(ptr noundef nonnull dereferenceable(1) %9, ptr noundef nonnull dereferenceable(1) %29, i64 noundef %13) #15
  %.not34.us = icmp eq i32 %30, 0
  br i1 %.not34.us, label %31, label %.split7.us

31:                                               ; preds = %27
  %indvars.iv.next71 = add nuw nsw i64 %indvars.iv70, 1
  %exitcond73.not = icmp eq i64 %indvars.iv.next71, 4
  br i1 %exitcond73.not, label %.loopexit, label %.preheader.split.us.split, !llvm.loop !27

.preheader.split:                                 ; preds = %.preheader
  switch i32 %6, label %.preheader.split.split [
    i32 36, label %.preheader.split.split.us.preheader
    i32 3, label %.preheader.split.split.us.preheader
  ]

.preheader.split.split.us.preheader:              ; preds = %.preheader.split, %.preheader.split
  br label %.preheader.split.split.us

.preheader.split.split.us:                        ; preds = %.preheader.split.split.us.preheader, %42
  %indvars.iv = phi i64 [ %indvars.iv.next, %42 ], [ 0, %.preheader.split.split.us.preheader ]
  %indvars.iv.next = add nuw nsw i64 %indvars.iv, 1
  %32 = trunc nuw nsw i64 %indvars.iv.next to i32
  %33 = call i32 (ptr, ...) @printf(ptr noundef nonnull dereferenceable(1) @.str.11, ptr noundef %1, i32 noundef %32)
  %34 = getelementptr inbounds nuw i32, ptr %4, i64 %indvars.iv
  %35 = load i32, ptr %34, align 4, !tbaa !26
  %36 = zext i32 %35 to i64
  %37 = call i32 @mbedtls_cipher_cmac(ptr noundef nonnull %10, ptr noundef %2, i64 noundef %12, ptr noundef nonnull @test_message, i64 noundef %36, ptr noundef nonnull %9)
  switch i32 %37, label %.split.us [
    i32 0, label %38
    i32 -114, label %42
    i32 -24704, label %42
  ]

38:                                               ; preds = %.preheader.split.split.us
  %39 = mul nuw nsw i64 %indvars.iv, %13
  %40 = getelementptr inbounds nuw i8, ptr %5, i64 %39
  %41 = call i32 @memcmp(ptr noundef nonnull dereferenceable(1) %9, ptr noundef nonnull dereferenceable(1) %40, i64 noundef %13) #15
  %.not34.us12 = icmp eq i32 %41, 0
  br i1 %.not34.us12, label %42, label %.split7.us

42:                                               ; preds = %38, %.preheader.split.split.us, %.preheader.split.split.us
  %str.6.sink = phi ptr [ @str.9, %.preheader.split.split.us ], [ @str.9, %.preheader.split.split.us ], [ @str.10, %38 ]
  %puts.us13 = call i32 @puts(ptr nonnull dereferenceable(1) %str.6.sink)
  %exitcond.not = icmp eq i64 %indvars.iv.next, 4
  br i1 %exitcond.not, label %.loopexit, label %.preheader.split.split.us, !llvm.loop !27

.preheader.split.split:                           ; preds = %.preheader.split, %53
  %indvars.iv62 = phi i64 [ %indvars.iv.next63, %53 ], [ 0, %.preheader.split ]
  %indvars.iv.next63 = add nuw nsw i64 %indvars.iv62, 1
  %43 = trunc nuw nsw i64 %indvars.iv.next63 to i32
  %44 = call i32 (ptr, ...) @printf(ptr noundef nonnull dereferenceable(1) @.str.11, ptr noundef %1, i32 noundef %43)
  %45 = getelementptr inbounds nuw i32, ptr %4, i64 %indvars.iv62
  %46 = load i32, ptr %45, align 4, !tbaa !26
  %47 = zext i32 %46 to i64
  %48 = call i32 @mbedtls_cipher_cmac(ptr noundef nonnull %10, ptr noundef %2, i64 noundef %12, ptr noundef nonnull @test_message, i64 noundef %47, ptr noundef nonnull %9)
  %cond34 = icmp eq i32 %48, 0
  br i1 %cond34, label %49, label %.split.us

.split.us:                                        ; preds = %.preheader.split.split.us, %.preheader.split.split, %.preheader.split.us.split.us, %.preheader.split.us.split
  %.us-phi = phi i32 [ %26, %.preheader.split.us.split ], [ %17, %.preheader.split.us.split.us ], [ %48, %.preheader.split.split ], [ %37, %.preheader.split.split.us ]
  br i1 %.not, label %.loopexit, label %.loopexit.sink.split

49:                                               ; preds = %.preheader.split.split
  %50 = mul nuw nsw i64 %indvars.iv62, %13
  %51 = getelementptr inbounds nuw i8, ptr %5, i64 %50
  %52 = call i32 @memcmp(ptr noundef nonnull dereferenceable(1) %9, ptr noundef nonnull dereferenceable(1) %51, i64 noundef %13) #15
  %.not34 = icmp eq i32 %52, 0
  br i1 %.not34, label %53, label %.split7.us

.split7.us:                                       ; preds = %38, %49, %18, %27
  %.us-phi8 = phi i32 [ %30, %27 ], [ %21, %18 ], [ %52, %49 ], [ %41, %38 ]
  br i1 %.not, label %.loopexit, label %.loopexit.sink.split

53:                                               ; preds = %49
  %puts = call i32 @puts(ptr nonnull dereferenceable(1) @str.10)
  %exitcond65.not = icmp eq i64 %indvars.iv.next63, 4
  br i1 %exitcond65.not, label %.loopexit, label %.preheader.split.split, !llvm.loop !27

.loopexit.sink.split:                             ; preds = %.split7.us, %.split.us
  %str.7.sink = phi ptr [ @str.11, %.split.us ], [ @str.11, %.split7.us ]
  %.0.ph = phi i32 [ %.us-phi, %.split.us ], [ %.us-phi8, %.split7.us ]
  %puts35 = call i32 @puts(ptr nonnull dereferenceable(1) %str.7.sink)
  br label %.loopexit

.loopexit:                                        ; preds = %42, %53, %22, %31, %.loopexit.sink.split, %8, %.split7.us, %.split.us
  %.0 = phi i32 [ %.us-phi, %.split.us ], [ %.us-phi8, %.split7.us ], [ -24704, %8 ], [ %.0.ph, %.loopexit.sink.split ], [ 0, %31 ], [ 0, %22 ], [ 0, %53 ], [ 0, %42 ]
  call void @llvm.lifetime.end.p0(i64 16, ptr nonnull %9) #13
  ret i32 %.0
}